; Function Attrs: null_pointer_is_valid sspstrong uwtable
define internal fastcc i32 @fTime(ptr noundef nonnull %0, ptr noundef %1, ptr noundef %2, i32 noundef %3, ptr noundef %4) unnamed_addr #0 {
  %6 = alloca i32, align 4
  %7 = alloca i8, align 1
  %8 = alloca i8, align 1
  call void @llvm.lifetime.start.p0(i64 4, ptr nonnull %6) #6
  call void @llvm.lifetime.start.p0(i64 1, ptr nonnull %7) #6
  call void @llvm.lifetime.start.p0(i64 1, ptr nonnull %8) #6
  %9 = call fastcc range(i32 1, 8) i32 @fTagHeaderTree(ptr noundef nonnull %0, ptr noundef %1, ptr noundef null, i32 noundef %3, ptr noundef nonnull %7, ptr noundef nonnull %8, ptr noundef nonnull %6)
  %10 = add i32 %9, %3
  %11 = tail call zeroext i8 @tvb_get_uint8(ptr noundef nonnull %0, i32 noundef %10)
  %12 = add i32 %10, 1
  %13 = tail call zeroext i8 @tvb_get_uint8(ptr noundef nonnull %0, i32 noundef %12)
  %14 = add i32 %10, 2
  %15 = tail call zeroext i8 @tvb_get_uint8(ptr noundef nonnull %0, i32 noundef %14)
  %16 = add i32 %10, 3
  %17 = tail call zeroext i8 @tvb_get_uint8(ptr noundef nonnull %0, i32 noundef %16)
  %18 = icmp eq i8 %11, -1
  %19 = icmp eq i8 %13, -1
  %or.cond = select i1 %18, i1 %19, i1 false
  %20 = icmp eq i8 %15, -1
  %or.cond3 = select i1 %or.cond, i1 %20, i1 false
  %21 = icmp eq i8 %17, -1
  %or.cond5 = select i1 %or.cond3, i1 %21, i1 false
  br i1 %or.cond5, label %22, label %27

22:                                               ; preds = %5
  %23 = load i32, ptr %6, align 4
  %24 = add i32 %23, %9
  %25 = load i32, ptr @ett_bacapp_tag, align 4
  %26 = tail call ptr (ptr, ptr, i32, i32, i32, ptr, ptr, ...) @proto_tree_add_subtree_format(ptr noundef %2, ptr noundef nonnull %0, i32 noundef %3, i32 noundef %24, i32 noundef %25, ptr noundef null, ptr noundef nonnull @.str.2628, ptr noundef %4)
  br label %41

27:                                               ; preds = %5
  %28 = zext i8 %17 to i32
  %29 = zext i8 %15 to i32
  %30 = zext i8 %13 to i32
  %31 = zext i8 %11 to i32
  %32 = load i32, ptr %6, align 4
  %33 = add i32 %32, %9
  %34 = load i32, ptr @ett_bacapp_tag, align 4
  %35 = icmp ugt i8 %11, 12
  %36 = add nsw i32 %31, -12
  %37 = select i1 %35, i32 %36, i32 %31
  %38 = icmp ugt i8 %11, 11
  %39 = select i1 %38, ptr @.str.2659, ptr @.str.2660
  %40 = tail call ptr (ptr, ptr, i32, i32, i32, ptr, ptr, ...) @proto_tree_add_subtree_format(ptr noundef %2, ptr noundef nonnull %0, i32 noundef %3, i32 noundef %33, i32 noundef %34, ptr noundef null, ptr noundef nonnull @.str.2658, ptr noundef %4, i32 noundef %37, i32 noundef %30, i32 noundef %29, i32 noundef %28, ptr noundef nonnull %39, i32 noundef %31, i32 noundef %30, i32 noundef %29, i32 noundef %28)
  br label %41

41:                                               ; preds = %27, %22
  %.0 = phi ptr [ %26, %22 ], [ %40, %27 ]
  %42 = call fastcc i32 @fTagHeaderTree(ptr noundef %0, ptr noundef %1, ptr noundef %.0, i32 noundef %3, ptr noundef nonnull %7, ptr noundef nonnull %8, ptr noundef nonnull %6)
  %43 = load i32, ptr %6, align 4
  %44 = add i32 %43, %10
  call void @llvm.lifetime.end.p0(i64 1, ptr nonnull %8) #6
  call void @llvm.lifetime.end.p0(i64 1, ptr nonnull %7) #6
  call void @llvm.lifetime.end.p0(i64 4, ptr nonnull %6) #6
  ret i32 %44
}